target datalayout = "e-m:e-p270:32:32-p271:32:32-p272:64:64-i64:64-i128:128-f80:128-n8:16:32:64-S128"
target triple = "x86_64-pc-linux-gnu"

%struct.Dar_Lib_t_ = type { ptr, i32, i32, [222 x i32], [222 x ptr], ptr, i32, ptr, [222 x ptr], ptr, [222 x ptr], ptr, [222 x ptr], [222 x i32], [222 x ptr], ptr, i32, i32, i32, [222 x i32], [222 x ptr], ptr, i32, [222 x i32], [222 x ptr], ptr, i32, ptr, i32, ptr, ptr, ptr, ptr, ptr }

@s_DarLib = internal global ptr null, align 8
@.str = private unnamed_addr constant [34 x i8] c"\0AOutput priorities (total = %d):\0A\00", align 1
@.str.1 = private unnamed_addr constant [5 x i8] c"%d, \00", align 1
@.str.2 = private unnamed_addr constant [2 x i8] c"\0A\00", align 1

; Function Attrs: nounwind uwtable
define void @Dar_LibDumpPriorities() #0 {
  %1 = alloca i32, align 4
  %2 = alloca i32, align 4
  %3 = alloca i32, align 4
  %4 = alloca i32, align 4
  %5 = alloca i32, align 4
  %6 = alloca i32, align 4
  store i32 0, ptr %5, align 4
  store i32 0, ptr %6, align 4
  %7 = load ptr, ptr @s_DarLib, align 8
  %8 = getelementptr inbounds %struct.Dar_Lib_t_, ptr %7, i32 0, i32 6
  %9 = load i32, ptr %8, align 8
  %10 = call i32 (ptr, ...) @printf(ptr noundef @.str, i32 noundef %9)
  store i32 0, ptr %1, align 4
  br label %11

11:                                               ; preds = %67, %0
  %12 = load i32, ptr %1, align 4
  %13 = icmp slt i32 %12, 222
  br i1 %13, label %14, label %70

14:                                               ; preds = %11
  store i32 0, ptr %2, align 4
  br label %15

15:                                               ; preds = %63, %14
  %16 = load i32, ptr %2, align 4
  %17 = load ptr, ptr @s_DarLib, align 8
  %18 = getelementptr inbounds %struct.Dar_Lib_t_, ptr %17, i32 0, i32 3
  %19 = load i32, ptr %1, align 4
  %20 = sext i32 %19 to i64
  %21 = getelementptr inbounds [222 x i32], ptr %18, i64 0, i64 %20
  %22 = load i32, ptr %21, align 4
  %23 = icmp slt i32 %16, %22
  br i1 %23, label %24, label %66

24:                                               ; preds = %15
  %25 = load ptr, ptr @s_DarLib, align 8
  %26 = getelementptr inbounds %struct.Dar_Lib_t_, ptr %25, i32 0, i32 8
  %27 = load i32, ptr %1, align 4
  %28 = sext i32 %27 to i64
  %29 = getelementptr inbounds [222 x ptr], ptr %26, i64 0, i64 %28
  %30 = load ptr, ptr %29, align 8
  %31 = load i32, ptr %2, align 4
  %32 = sext i32 %31 to i64
  %33 = getelementptr inbounds i32, ptr %30, i64 %32
  %34 = load i32, ptr %33, align 4
  store i32 %34, ptr %3, align 4
  %35 = load i32, ptr %2, align 4
  %36 = icmp eq i32 %35, 0
  br i1 %36, label %37, label %39

37:                                               ; preds = %24
  %38 = load i32, ptr %3, align 4
  br label %51

39:                                               ; preds = %24
  %40 = load ptr, ptr @s_DarLib, align 8
  %41 = getelementptr inbounds %struct.Dar_Lib_t_, ptr %40, i32 0, i32 8
  %42 = load i32, ptr %1, align 4
  %43 = sext i32 %42 to i64
  %44 = getelementptr inbounds [222 x ptr], ptr %41, i64 0, i64 %43
  %45 = load ptr, ptr %44, align 8
  %46 = load i32, ptr %2, align 4
  %47 = sub nsw i32 %46, 1
  %48 = sext i32 %47 to i64
  %49 = getelementptr inbounds i32, ptr %45, i64 %48
  %50 = load i32, ptr %49, align 4
  br label %51

51:                                               ; preds = %39, %37
  %52 = phi i32 [ %38, %37 ], [ %50, %39 ]
  store i32 %52, ptr %4, align 4
  %53 = load i32, ptr %3, align 4
  %54 = call i32 (ptr, ...) @printf(ptr noundef @.str.1, i32 noundef %53)
  %55 = load i32, ptr %6, align 4
  %56 = add nsw i32 %55, 1
  store i32 %56, ptr %6, align 4
  %57 = load i32, ptr %5, align 4
  %58 = add nsw i32 %57, 1
  store i32 %58, ptr %5, align 4
  %59 = icmp eq i32 %58, 15
  br i1 %59, label %60, label %62

60:                                               ; preds = %51
  %61 = call i32 (ptr, ...) @printf(ptr noundef @.str.2)
  store i32 0, ptr %5, align 4
  br label %62

62:                                               ; preds = %60, %51
  br label %63

63:                                               ; preds = %62
  %64 = load i32, ptr %2, align 4
  %65 = add nsw i32 %64, 1
  store i32 %65, ptr %2, align 4
  br label %15, !llvm.loop !41

66:                                               ; preds = %15
  br label %67

67:                                               ; preds = %66
  %68 = load i32, ptr %1, align 4
  %69 = add nsw i32 %68, 1
  store i32 %69, ptr %1, align 4
  br label %11, !llvm.loop !42

70:                                               ; preds = %11
  %71 = call i32 (ptr, ...) @printf(ptr noundef @.str.2)
  ret void
}