; Function Attrs: nofree nounwind uwtable
define void @Dar_LibDumpPriorities() local_unnamed_addr #10 {
  %1 = load ptr, ptr @s_DarLib, align 8
  %2 = getelementptr inbounds nuw i8, ptr %1, i64 2688
  %3 = load i32, ptr %2, align 8
  %4 = tail call i32 (ptr, ...) @printf(ptr noundef nonnull dereferenceable(1) @.str, i32 noundef %3)
  %.pre = load ptr, ptr @s_DarLib, align 8
  br label %.preheader

.preheader:                                       ; preds = %0, %._crit_edge
  %5 = phi ptr [ %.pre, %0 ], [ %27, %._crit_edge ]
  %indvars.iv28 = phi i64 [ 0, %0 ], [ %indvars.iv.next29, %._crit_edge ]
  %.01425 = phi i32 [ 0, %0 ], [ %.115.lcssa, %._crit_edge ]
  %6 = getelementptr inbounds nuw i8, ptr %5, i64 16
  %7 = getelementptr inbounds nuw [222 x i32], ptr %6, i64 0, i64 %indvars.iv28
  %8 = load i32, ptr %7, align 4
  %9 = icmp sgt i32 %8, 0
  br i1 %9, label %.lr.ph, label %._crit_edge

.lr.ph:                                           ; preds = %.preheader, %20
  %indvars.iv = phi i64 [ %indvars.iv.next, %20 ], [ 0, %.preheader ]
  %10 = phi ptr [ %21, %20 ], [ %5, %.preheader ]
  %.11521 = phi i32 [ %.2, %20 ], [ %.01425, %.preheader ]
  %11 = getelementptr inbounds nuw i8, ptr %10, i64 2704
  %12 = getelementptr inbounds nuw [222 x ptr], ptr %11, i64 0, i64 %indvars.iv28
  %13 = load ptr, ptr %12, align 8
  %14 = getelementptr inbounds nuw i32, ptr %13, i64 %indvars.iv
  %15 = load i32, ptr %14, align 4
  %16 = tail call i32 (ptr, ...) @printf(ptr noundef nonnull dereferenceable(1) @.str.1, i32 noundef %15)
  %17 = add nsw i32 %.11521, 1
  %18 = icmp eq i32 %17, 15
  br i1 %18, label %19, label %20

19:                                               ; preds = %.lr.ph
  %putchar19 = tail call i32 @putchar(i32 10)
  br label %20

20:                                               ; preds = %.lr.ph, %19
  %.2 = phi i32 [ 0, %19 ], [ %17, %.lr.ph ]
  %indvars.iv.next = add nuw nsw i64 %indvars.iv, 1
  %21 = load ptr, ptr @s_DarLib, align 8
  %22 = getelementptr inbounds nuw i8, ptr %21, i64 16
  %23 = getelementptr inbounds nuw [222 x i32], ptr %22, i64 0, i64 %indvars.iv28
  %24 = load i32, ptr %23, align 4
  %25 = sext i32 %24 to i64
  %26 = icmp slt i64 %indvars.iv.next, %25
  br i1 %26, label %.lr.ph, label %._crit_edge, !llvm.loop !33

._crit_edge:                                      ; preds = %20, %.preheader
  %27 = phi ptr [ %5, %.preheader ], [ %21, %20 ]
  %.115.lcssa = phi i32 [ %.01425, %.preheader ], [ %.2, %20 ]
  %indvars.iv.next29 = add nuw nsw i64 %indvars.iv28, 1
  %exitcond.not = icmp eq i64 %indvars.iv.next29, 222
  br i1 %exitcond.not, label %28, label %.preheader, !llvm.loop !34

28:                                               ; preds = %._crit_edge
  %putchar = tail call i32 @putchar(i32 10)
  ret void
}